; Function Attrs: nounwind uwtable
define noundef i32 @prte_state_base_set_job_state_callback(i32 noundef %0, ptr noundef %1) local_unnamed_addr #0 {
  %prte_job_states.val = load ptr, ptr getelementptr inbounds nuw (i8, ptr @prte_job_states, i64 240), align 8, !tbaa !3
  %.not16 = icmp eq ptr %prte_job_states.val, getelementptr inbounds nuw (i8, ptr @prte_job_states, i64 120)
  br i1 %.not16, label %._crit_edge, label %.lr.ph

.lr.ph:                                           ; preds = %2, %12
  %.017 = phi ptr [ %13, %12 ], [ %prte_job_states.val, %2 ]
  %3 = getelementptr inbounds nuw i8, ptr %.017, i64 144
  %4 = load i32, ptr %3, align 8, !tbaa !15
  %5 = icmp eq i32 %4, %0
  br i1 %5, label %6, label %8

6:                                                ; preds = %.lr.ph
  %7 = getelementptr inbounds nuw i8, ptr %.017, i64 152
  store ptr %1, ptr %7, align 8, !tbaa !28
  br label %39

8:                                                ; preds = %.lr.ph
  %.not14 = icmp eq ptr %.017, null
  br i1 %.not14, label %12, label %9

9:                                                ; preds = %8
  %10 = getelementptr inbounds nuw i8, ptr %.017, i64 120
  %11 = load ptr, ptr %10, align 8, !tbaa !51
  br label %12

12:                                               ; preds = %8, %9
  %13 = phi ptr [ %11, %9 ], [ null, %8 ]
  %.not = icmp eq ptr %13, getelementptr inbounds nuw (i8, ptr @prte_job_states, i64 120)
  br i1 %.not, label %._crit_edge, label %.lr.ph, !llvm.loop !56

._crit_edge:                                      ; preds = %12, %2
  %14 = load i64, ptr getelementptr inbounds nuw (i8, ptr @prte_state_t_class, i64 56), align 8, !tbaa !29
  %15 = tail call noalias noundef ptr @malloc(i64 noundef %14) #15
  %16 = load i32, ptr @pmix_class_init_epoch, align 4, !tbaa !31
  %17 = load i32, ptr getelementptr inbounds nuw (i8, ptr @prte_state_t_class, i64 32), align 8, !tbaa !32
  %.not.i = icmp eq i32 %16, %17
  br i1 %.not.i, label %19, label %18

18:                                               ; preds = %._crit_edge
  tail call void @pmix_class_initialize(ptr noundef nonnull @prte_state_t_class) #14
  br label %19

19:                                               ; preds = %18, %._crit_edge
  %.not22.i = icmp eq ptr %15, null
  br i1 %.not22.i, label %pmix_obj_new_tma.exit, label %20

20:                                               ; preds = %19
  %21 = tail call i32 @pthread_mutex_init(ptr noundef nonnull %15, ptr noundef null) #14
  %22 = getelementptr inbounds nuw i8, ptr %15, i64 40
  store ptr @prte_state_t_class, ptr %22, align 8, !tbaa !33
  %23 = getelementptr inbounds nuw i8, ptr %15, i64 48
  store i32 1, ptr %23, align 8, !tbaa !34
  %24 = getelementptr inbounds nuw i8, ptr %15, i64 56
  %25 = getelementptr inbounds nuw i8, ptr %15, i64 96
  tail call void @llvm.memset.p0.i64(ptr noundef nonnull align 8 dereferenceable(32) %24, i8 0, i64 32, i1 false)
  tail call void @llvm.memset.p0.i64(ptr noundef nonnull align 8 dereferenceable(24) %25, i8 0, i64 24, i1 false)
  %26 = load ptr, ptr getelementptr inbounds nuw (i8, ptr @prte_state_t_class, i64 40), align 8, !tbaa !35
  %27 = load ptr, ptr %26, align 8, !tbaa !36
  %.not6.i.i = icmp eq ptr %27, null
  br i1 %.not6.i.i, label %pmix_obj_new_tma.exit, label %.lr.ph.i.i

.lr.ph.i.i:                                       ; preds = %20, %.lr.ph.i.i
  %28 = phi ptr [ %30, %.lr.ph.i.i ], [ %27, %20 ]
  %.07.i.i = phi ptr [ %29, %.lr.ph.i.i ], [ %26, %20 ]
  tail call void %28(ptr noundef nonnull %15) #14
  %29 = getelementptr inbounds nuw i8, ptr %.07.i.i, i64 8
  %30 = load ptr, ptr %29, align 8, !tbaa !36
  %.not.i.i = icmp eq ptr %30, null
  br i1 %.not.i.i, label %pmix_obj_new_tma.exit, label %.lr.ph.i.i, !llvm.loop !37

pmix_obj_new_tma.exit:                            ; preds = %.lr.ph.i.i, %19, %20
  %31 = getelementptr inbounds nuw i8, ptr %15, i64 144
  store i32 %0, ptr %31, align 8, !tbaa !15
  %32 = getelementptr inbounds nuw i8, ptr %15, i64 152
  store ptr %1, ptr %32, align 8, !tbaa !28
  %33 = load ptr, ptr getelementptr inbounds nuw (i8, ptr @prte_job_states, i64 248), align 8, !tbaa !54
  %34 = getelementptr inbounds nuw i8, ptr %15, i64 128
  store ptr %33, ptr %34, align 8, !tbaa !54
  %35 = getelementptr inbounds nuw i8, ptr %33, i64 120
  store volatile ptr %15, ptr %35, align 8, !tbaa !51
  %36 = getelementptr inbounds nuw i8, ptr %15, i64 120
  store ptr getelementptr inbounds nuw (i8, ptr @prte_job_states, i64 120), ptr %36, align 8, !tbaa !51
  store ptr %15, ptr getelementptr inbounds nuw (i8, ptr @prte_job_states, i64 248), align 8, !tbaa !54
  %37 = load volatile i64, ptr getelementptr inbounds nuw (i8, ptr @prte_job_states, i64 264), align 8, !tbaa !55
  %38 = add i64 %37, 1
  store volatile i64 %38, ptr getelementptr inbounds nuw (i8, ptr @prte_job_states, i64 264), align 8, !tbaa !55
  br label %39

39:                                               ; preds = %pmix_obj_new_tma.exit, %6
  ret i32 0
}